target datalayout = "e-m:e-p270:32:32-p271:32:32-p272:64:64-i64:64-i128:128-f80:128-n8:16:32:64-S128"
target triple = "x86_64-pc-linux-gnu"

%struct._typeobject = type { %struct.PyVarObject, ptr, i64, i64, ptr, i64, ptr, ptr, ptr, ptr, ptr, ptr, ptr, ptr, ptr, ptr, ptr, ptr, ptr, i64, ptr, ptr, ptr, ptr, i64, ptr, ptr, ptr, ptr, ptr, ptr, ptr, ptr, ptr, i64, ptr, ptr, ptr, ptr, ptr, ptr, ptr, ptr, ptr, ptr, ptr, i32, ptr, ptr, i8, i16 }
%struct.PyVarObject = type { %struct._object, i64 }
%struct._object = type { %union.anon, ptr }
%union.anon = type { i64 }
%struct.anon = type { i32, i32 }

@PyExc_TypeError = external global ptr, align 8
@PyModule_Type = external global %struct._typeobject, align 8
@.str.11 = private unnamed_addr constant [61 x i8] c"'%.200s' object is not callable. Did you mean: '%U.%U(...)'?\00", align 1
@.str.12 = private unnamed_addr constant [32 x i8] c"'%.200s' object is not callable\00", align 1

; Function Attrs: alwaysinline nounwind uwtable
define internal i32 @_Py_IsImmortal(ptr noundef %0) #3 {
  %2 = alloca ptr, align 8
  store ptr %0, ptr %2, align 8, !tbaa !9
  %3 = load ptr, ptr %2, align 8, !tbaa !9
  %4 = getelementptr inbounds nuw %struct._object, ptr %3, i32 0, i32 0
  %5 = getelementptr inbounds nuw %struct.anon, ptr %4, i32 0, i32 0
  %6 = load i32, ptr %5, align 8, !tbaa !24
  %7 = icmp slt i32 %6, 0
  %8 = zext i1 %7 to i32
  ret i32 %8
}

; Function Attrs: inlinehint nounwind uwtable
define internal void @Py_XDECREF(ptr noundef %0) #1 {
  %2 = alloca ptr, align 8
  store ptr %0, ptr %2, align 8, !tbaa !9
  %3 = load ptr, ptr %2, align 8, !tbaa !9
  %4 = icmp ne ptr %3, null
  br i1 %4, label %5, label %7

5:                                                ; preds = %1
  %6 = load ptr, ptr %2, align 8, !tbaa !9
  call void @Py_DECREF(ptr noundef %6)
  br label %7

7:                                                ; preds = %5, %1
  ret void
}

; Function Attrs: alwaysinline nounwind uwtable
define internal void @Py_DECREF(ptr noundef %0) #3 {
  %2 = alloca ptr, align 8
  store ptr %0, ptr %2, align 8, !tbaa !9
  %3 = load ptr, ptr %2, align 8, !tbaa !9
  %4 = call i32 @_Py_IsImmortal(ptr noundef %3)
  %5 = icmp ne i32 %4, 0
  br i1 %5, label %6, label %7

6:                                                ; preds = %1
  br label %16

7:                                                ; preds = %1
  %8 = load ptr, ptr %2, align 8, !tbaa !9
  %9 = getelementptr inbounds nuw %struct._object, ptr %8, i32 0, i32 0
  %10 = getelementptr inbounds nuw %struct.anon, ptr %9, i32 0, i32 0
  %11 = load i32, ptr %10, align 8, !tbaa !24
  %12 = add i32 %11, -1
  store i32 %12, ptr %10, align 8, !tbaa !24
  %13 = icmp eq i32 %12, 0
  br i1 %13, label %14, label %16

14:                                               ; preds = %7
  %15 = load ptr, ptr %2, align 8, !tbaa !9
  call void @_Py_Dealloc(ptr noundef %15)
  br label %16

16:                                               ; preds = %6, %14, %7
  ret void
}

; Function Attrs: inlinehint nounwind uwtable
define internal ptr @_Py_TYPE(ptr noundef %0) #1 {
  %2 = alloca ptr, align 8
  store ptr %0, ptr %2, align 8, !tbaa !9
  %3 = load ptr, ptr %2, align 8, !tbaa !9
  %4 = getelementptr inbounds nuw %struct._object, ptr %3, i32 0, i32 1
  %5 = load ptr, ptr %4, align 8, !tbaa !35
  ret ptr %5
}

; Function Attrs: inlinehint nounwind uwtable
define internal i32 @Py_IS_TYPE(ptr noundef %0, ptr noundef %1) #1 {
  %3 = alloca ptr, align 8
  %4 = alloca ptr, align 8
  store ptr %0, ptr %3, align 8, !tbaa !9
  store ptr %1, ptr %4, align 8, !tbaa !49
  %5 = load ptr, ptr %3, align 8, !tbaa !9
  %6 = call ptr @_Py_TYPE(ptr noundef %5)
  %7 = load ptr, ptr %4, align 8, !tbaa !49
  %8 = icmp eq ptr %6, %7
  %9 = zext i1 %8 to i32
  ret i32 %9
}

; Function Attrs: nounwind uwtable
define internal void @object_is_not_callable(ptr noundef %0, ptr noundef %1) #0 {
  %3 = alloca ptr, align 8
  %4 = alloca ptr, align 8
  %5 = alloca ptr, align 8
  %6 = alloca ptr, align 8
  %7 = alloca i32, align 4
  %8 = alloca i32, align 4
  store ptr %0, ptr %3, align 8, !tbaa !4
  store ptr %1, ptr %4, align 8, !tbaa !9
  %9 = load ptr, ptr %4, align 8, !tbaa !9
  %10 = call i32 @Py_IS_TYPE(ptr noundef %9, ptr noundef @PyModule_Type)
  %11 = icmp ne i32 %10, 0
  br i1 %11, label %12, label %54

12:                                               ; preds = %2
  call void @llvm.lifetime.start.p0(i64 8, ptr %5) #9
  %13 = load ptr, ptr %4, align 8, !tbaa !9
  %14 = call ptr @PyModule_GetNameObject(ptr noundef %13)
  store ptr %14, ptr %5, align 8, !tbaa !9
  %15 = load ptr, ptr %5, align 8, !tbaa !9
  %16 = icmp eq ptr %15, null
  br i1 %16, label %17, label %19

17:                                               ; preds = %12
  %18 = load ptr, ptr %3, align 8, !tbaa !4
  call void @_PyErr_Clear(ptr noundef %18)
  store i32 2, ptr %8, align 4
  br label %51

19:                                               ; preds = %12
  call void @llvm.lifetime.start.p0(i64 8, ptr %6) #9
  call void @llvm.lifetime.start.p0(i64 4, ptr %7) #9
  %20 = load ptr, ptr %4, align 8, !tbaa !9
  %21 = load ptr, ptr %5, align 8, !tbaa !9
  %22 = call i32 @PyObject_GetOptionalAttr(ptr noundef %20, ptr noundef %21, ptr noundef %6)
  store i32 %22, ptr %7, align 4, !tbaa !25
  %23 = load i32, ptr %7, align 4, !tbaa !25
  %24 = icmp slt i32 %23, 0
  br i1 %24, label %25, label %27

25:                                               ; preds = %19
  %26 = load ptr, ptr %3, align 8, !tbaa !4
  call void @_PyErr_Clear(ptr noundef %26)
  br label %47

27:                                               ; preds = %19
  %28 = load i32, ptr %7, align 4, !tbaa !25
  %29 = icmp sgt i32 %28, 0
  br i1 %29, label %30, label %46

30:                                               ; preds = %27
  %31 = load ptr, ptr %6, align 8, !tbaa !9
  %32 = call i32 @PyCallable_Check(ptr noundef %31)
  %33 = icmp ne i32 %32, 0
  br i1 %33, label %34, label %46

34:                                               ; preds = %30
  %35 = load ptr, ptr %3, align 8, !tbaa !4
  %36 = load ptr, ptr @PyExc_TypeError, align 8, !tbaa !9
  %37 = load ptr, ptr %4, align 8, !tbaa !9
  %38 = call ptr @_Py_TYPE(ptr noundef %37)
  %39 = getelementptr inbounds nuw %struct._typeobject, ptr %38, i32 0, i32 1
  %40 = load ptr, ptr %39, align 8, !tbaa !26
  %41 = load ptr, ptr %5, align 8, !tbaa !9
  %42 = load ptr, ptr %5, align 8, !tbaa !9
  %43 = call ptr (ptr, ptr, ptr, ...) @_PyErr_Format(ptr noundef %35, ptr noundef %36, ptr noundef @.str.11, ptr noundef %40, ptr noundef %41, ptr noundef %42)
  %44 = load ptr, ptr %6, align 8, !tbaa !9
  call void @Py_DECREF(ptr noundef %44)
  %45 = load ptr, ptr %5, align 8, !tbaa !9
  call void @Py_DECREF(ptr noundef %45)
  store i32 1, ptr %8, align 4
  br label %50

46:                                               ; preds = %30, %27
  br label %47

47:                                               ; preds = %46, %25
  %48 = load ptr, ptr %6, align 8, !tbaa !9
  call void @Py_XDECREF(ptr noundef %48)
  %49 = load ptr, ptr %5, align 8, !tbaa !9
  call void @Py_DECREF(ptr noundef %49)
  store i32 0, ptr %8, align 4
  br label %50

50:                                               ; preds = %47, %34
  call void @llvm.lifetime.end.p0(i64 4, ptr %7) #9
  call void @llvm.lifetime.end.p0(i64 8, ptr %6) #9
  br label %51

51:                                               ; preds = %17, %50
  call void @llvm.lifetime.end.p0(i64 8, ptr %5) #9
  %52 = load i32, ptr %8, align 4
  switch i32 %52, label %64 [
    i32 0, label %53
    i32 1, label %63
    i32 2, label %55
  ]

53:                                               ; preds = %51
  br label %54

54:                                               ; preds = %53, %2
  br label %55

55:                                               ; preds = %54, %51
  %56 = load ptr, ptr %3, align 8, !tbaa !4
  %57 = load ptr, ptr @PyExc_TypeError, align 8, !tbaa !9
  %58 = load ptr, ptr %4, align 8, !tbaa !9
  %59 = call ptr @_Py_TYPE(ptr noundef %58)
  %60 = getelementptr inbounds nuw %struct._typeobject, ptr %59, i32 0, i32 1
  %61 = load ptr, ptr %60, align 8, !tbaa !26
  %62 = call ptr (ptr, ptr, ptr, ...) @_PyErr_Format(ptr noundef %56, ptr noundef %57, ptr noundef @.str.12, ptr noundef %61)
  br label %63

63:                                               ; preds = %55, %51
  ret void

64:                                               ; preds = %51
  unreachable
}