; Function Attrs: nounwind uwtable
define internal fastcc void @object_is_not_callable(ptr noundef %0, ptr noundef %1) unnamed_addr #0 {
  %3 = alloca ptr, align 8
  %4 = getelementptr i8, ptr %1, i64 8
  %.val28 = load ptr, ptr %4, align 8, !tbaa !20
  %.not = icmp eq ptr %.val28, @PyModule_Type
  br i1 %.not, label %5, label %46

5:                                                ; preds = %2
  %6 = tail call ptr @PyModule_GetNameObject(ptr noundef nonnull %1) #10
  %7 = icmp eq ptr %6, null
  br i1 %7, label %.thread, label %8

.thread:                                          ; preds = %5
  tail call void @_PyErr_Clear(ptr noundef %0) #10
  br label %46

8:                                                ; preds = %5
  call void @llvm.lifetime.start.p0(i64 8, ptr nonnull %3) #10
  %9 = call i32 @PyObject_GetOptionalAttr(ptr noundef nonnull %1, ptr noundef nonnull %6, ptr noundef nonnull %3) #10
  %10 = icmp slt i32 %9, 0
  br i1 %10, label %11, label %12

11:                                               ; preds = %8
  call void @_PyErr_Clear(ptr noundef %0) #10
  br label %32

12:                                               ; preds = %8
  %.not19 = icmp eq i32 %9, 0
  br i1 %.not19, label %32, label %13

13:                                               ; preds = %12
  %14 = load ptr, ptr %3, align 8, !tbaa !23
  %15 = call i32 @PyCallable_Check(ptr noundef %14) #10
  %.not20 = icmp eq i32 %15, 0
  br i1 %.not20, label %32, label %16

16:                                               ; preds = %13
  %17 = load ptr, ptr @PyExc_TypeError, align 8, !tbaa !23
  %.val27 = load ptr, ptr %4, align 8, !tbaa !20
  %18 = getelementptr inbounds nuw i8, ptr %.val27, i64 24
  %19 = load ptr, ptr %18, align 8, !tbaa !26
  %20 = call ptr (ptr, ptr, ptr, ...) @_PyErr_Format(ptr noundef %0, ptr noundef %17, ptr noundef nonnull @.str.11, ptr noundef %19, ptr noundef nonnull %6, ptr noundef nonnull %6) #10
  %21 = load ptr, ptr %3, align 8, !tbaa !23
  %22 = load i32, ptr %21, align 8, !tbaa !24
  %.not.i23 = icmp sgt i32 %22, -1
  br i1 %.not.i23, label %23, label %Py_DECREF.exit24

23:                                               ; preds = %16
  %24 = add nsw i32 %22, -1
  store i32 %24, ptr %21, align 8, !tbaa !24
  %25 = icmp eq i32 %24, 0
  br i1 %25, label %26, label %Py_DECREF.exit24

26:                                               ; preds = %23
  call void @_Py_Dealloc(ptr noundef nonnull %21) #10
  br label %Py_DECREF.exit24

Py_DECREF.exit24:                                 ; preds = %16, %23, %26
  %27 = load i32, ptr %6, align 8, !tbaa !24
  %.not.i21 = icmp sgt i32 %27, -1
  br i1 %.not.i21, label %28, label %.thread33

28:                                               ; preds = %Py_DECREF.exit24
  %29 = add nsw i32 %27, -1
  store i32 %29, ptr %6, align 8, !tbaa !24
  %30 = icmp eq i32 %29, 0
  br i1 %30, label %31, label %.thread33

31:                                               ; preds = %28
  call void @_Py_Dealloc(ptr noundef nonnull %6) #10
  br label %.thread33

32:                                               ; preds = %12, %13, %11
  %33 = load ptr, ptr %3, align 8, !tbaa !23
  %.not.i29 = icmp eq ptr %33, null
  br i1 %.not.i29, label %Py_XDECREF.exit, label %34

34:                                               ; preds = %32
  %35 = load i32, ptr %33, align 8, !tbaa !24
  %.not.i.i = icmp sgt i32 %35, -1
  br i1 %.not.i.i, label %36, label %Py_XDECREF.exit

36:                                               ; preds = %34
  %37 = add nsw i32 %35, -1
  store i32 %37, ptr %33, align 8, !tbaa !24
  %38 = icmp eq i32 %37, 0
  br i1 %38, label %39, label %Py_XDECREF.exit

39:                                               ; preds = %36
  call void @_Py_Dealloc(ptr noundef nonnull %33) #10
  br label %Py_XDECREF.exit

Py_XDECREF.exit:                                  ; preds = %32, %34, %36, %39
  %40 = load i32, ptr %6, align 8, !tbaa !24
  %.not.i = icmp sgt i32 %40, -1
  br i1 %.not.i, label %41, label %45

41:                                               ; preds = %Py_XDECREF.exit
  %42 = add nsw i32 %40, -1
  store i32 %42, ptr %6, align 8, !tbaa !24
  %43 = icmp eq i32 %42, 0
  br i1 %43, label %44, label %45

44:                                               ; preds = %41
  call void @_Py_Dealloc(ptr noundef nonnull %6) #10
  br label %45

.thread33:                                        ; preds = %Py_DECREF.exit24, %28, %31
  call void @llvm.lifetime.end.p0(i64 8, ptr nonnull %3) #10
  br label %51

45:                                               ; preds = %Py_XDECREF.exit, %41, %44
  call void @llvm.lifetime.end.p0(i64 8, ptr nonnull %3) #10
  br label %46

46:                                               ; preds = %45, %.thread, %2
  %47 = load ptr, ptr @PyExc_TypeError, align 8, !tbaa !23
  %.val = load ptr, ptr %4, align 8, !tbaa !20
  %48 = getelementptr inbounds nuw i8, ptr %.val, i64 24
  %49 = load ptr, ptr %48, align 8, !tbaa !26
  %50 = call ptr (ptr, ptr, ptr, ...) @_PyErr_Format(ptr noundef %0, ptr noundef %47, ptr noundef nonnull @.str.12, ptr noundef %49) #10
  br label %51

51:                                               ; preds = %.thread33, %46
  ret void
}